target datalayout = "e-m:e-p270:32:32-p271:32:32-p272:64:64-i64:64-i128:128-f80:128-n8:16:32:64-S128"
target triple = "x86_64-pc-linux-gnu"

%struct._zend_executor_globals = type { %struct._zval_struct, %struct._zval_struct, [32 x ptr], ptr, ptr, %struct._zend_array, %struct._zend_array, ptr, i32, i32, ptr, ptr, ptr, ptr, ptr, ptr, i64, ptr, ptr, i32, i32, i64, i32, i32, i32, i8, i8, %struct.zend_atomic_bool_s, %struct.zend_atomic_bool_s, ptr, i64, ptr, ptr, %struct._zend_array, %struct._zend_array, i32, i8, %struct._zval_struct, %struct._zval_struct, %struct._zend_stack, %struct._zend_stack, %struct._zend_stack, ptr, i32, i32, i64, ptr, ptr, ptr, %struct._zend_objects_store, ptr, ptr, ptr, [3 x %struct._zend_op], ptr, i8, i8, i64, i32, i32, ptr, [16 x %struct._HashTableIterator], ptr, %union._zend_function, %struct._zend_op, %struct._zend_array, i64, %struct.zend_get_gc_buffer, ptr, ptr, ptr, i64, i8, i32, ptr, ptr, i64, %struct._zend_call_stack, i64, i64, [6 x ptr] }
%struct.zend_atomic_bool_s = type { i8 }
%struct._zval_struct = type { %union._zend_value, %union.anon, %union.anon.2 }
%union._zend_value = type { i64 }
%union.anon = type { i32 }
%union.anon.2 = type { i32 }
%struct._zend_stack = type { i32, i32, i32, ptr }
%struct._zend_objects_store = type { ptr, i32, i32, i32 }
%struct._HashTableIterator = type { ptr, i32, i32 }
%union._zend_function = type { %struct._zend_op_array }
%struct._zend_op_array = type { i8, [3 x i8], i32, ptr, ptr, ptr, i32, i32, ptr, ptr, ptr, ptr, i32, i32, i32, i32, ptr, ptr, ptr, ptr, ptr, i32, i32, ptr, ptr, ptr, i32, i32, i32, i32, ptr, ptr, [6 x ptr] }
%struct._zend_op = type { ptr, %union._znode_op, %union._znode_op, %union._znode_op, i32, i32, i8, i8, i8, i8 }
%union._znode_op = type { i32 }
%struct._zend_array = type { %struct._zend_refcounted_h, %union.anon.4, i32, %union.anon.6, i32, i32, i32, i32, i64, ptr }
%struct._zend_refcounted_h = type { i32, %union.anon.3 }
%union.anon.3 = type { i32 }
%union.anon.4 = type { i32 }
%union.anon.6 = type { ptr }
%struct.zend_get_gc_buffer = type { ptr, ptr, ptr }
%struct._zend_call_stack = type { ptr, i64 }
%struct._zend_execute_data = type { ptr, ptr, ptr, ptr, %struct._zval_struct, ptr, ptr, ptr, ptr }
%struct.anon.0 = type { i8, i8, %union.anon.1 }
%union.anon.1 = type { i16 }
%struct._zend_reference = type { %struct._zend_refcounted_h, %struct._zval_struct, %union.zend_property_info_source_list }
%union.zend_property_info_source_list = type { ptr }

@executor_globals = external global %struct._zend_executor_globals, align 8

; Function Attrs: nounwind uwtable
define hidden i32 @zend_jit_leave_top_func_helper(i32 noundef %0, ptr noundef %1) #0 {
  %3 = alloca ptr, align 8
  %4 = alloca ptr, align 8
  %5 = alloca ptr, align 8
  %6 = alloca ptr, align 8
  %7 = alloca ptr, align 8
  %8 = alloca ptr, align 8
  %9 = alloca ptr, align 8
  %10 = alloca i32, align 4
  %11 = alloca ptr, align 8
  %12 = alloca i32, align 4
  %13 = alloca ptr, align 8
  %14 = alloca i32, align 4
  %15 = alloca ptr, align 8
  store i32 %0, ptr %14, align 4
  store ptr %1, ptr %15, align 8
  %16 = load i32, ptr %14, align 4
  %17 = and i32 %16, 1572864
  %18 = icmp ne i32 %17, 0
  %19 = xor i1 %18, true
  %20 = xor i1 %19, true
  %21 = zext i1 %20 to i32
  %22 = sext i32 %21 to i64
  %23 = icmp ne i64 %22, 0
  br i1 %23, label %24, label %128

24:                                               ; preds = %2
  %25 = load i32, ptr %14, align 4
  %26 = and i32 %25, 1048576
  %27 = icmp ne i32 %26, 0
  %28 = xor i1 %27, true
  %29 = xor i1 %28, true
  %30 = zext i1 %29 to i32
  %31 = sext i32 %30 to i64
  %32 = icmp ne i64 %31, 0
  br i1 %32, label %33, label %37

33:                                               ; preds = %24
  %34 = load ptr, ptr %15, align 8
  %35 = getelementptr inbounds %struct._zend_execute_data, ptr %34, i32 0, i32 6
  %36 = load ptr, ptr %35, align 8
  call void @zend_clean_and_cache_symbol_table(ptr noundef %36)
  br label %37

37:                                               ; preds = %33, %24
  %38 = load i32, ptr %14, align 4
  %39 = load ptr, ptr %15, align 8
  store i32 %38, ptr %10, align 4
  store ptr %39, ptr %11, align 8
  %40 = load i32, ptr %10, align 4
  %41 = and i32 %40, 524288
  %42 = icmp ne i32 %41, 0
  br i1 %42, label %43, label %127

43:                                               ; preds = %37
  %44 = load ptr, ptr %11, align 8
  %45 = getelementptr inbounds %struct._zend_execute_data, ptr %44, i32 0, i32 4
  %46 = getelementptr inbounds %struct._zval_struct, ptr %45, i32 0, i32 2
  %47 = load i32, ptr %46, align 4
  %48 = load ptr, ptr %11, align 8
  %49 = getelementptr inbounds %struct._zend_execute_data, ptr %48, i32 0, i32 3
  %50 = load ptr, ptr %49, align 8
  %51 = getelementptr inbounds %struct._zend_op_array, ptr %50, i32 0, i32 6
  %52 = load i32, ptr %51, align 8
  %53 = sub i32 %47, %52
  store i32 %53, ptr %12, align 4
  %54 = load ptr, ptr %11, align 8
  %55 = load ptr, ptr %11, align 8
  %56 = getelementptr inbounds %struct._zend_execute_data, ptr %55, i32 0, i32 3
  %57 = load ptr, ptr %56, align 8
  %58 = getelementptr inbounds %struct._zend_op_array, ptr %57, i32 0, i32 14
  %59 = load i32, ptr %58, align 8
  %60 = load ptr, ptr %11, align 8
  %61 = getelementptr inbounds %struct._zend_execute_data, ptr %60, i32 0, i32 3
  %62 = load ptr, ptr %61, align 8
  %63 = getelementptr inbounds %struct._zend_op_array, ptr %62, i32 0, i32 12
  %64 = load i32, ptr %63, align 8
  %65 = add i32 %59, %64
  %66 = add nsw i32 5, %65
  %67 = sext i32 %66 to i64
  %68 = getelementptr inbounds %struct._zval_struct, ptr %54, i64 %67
  store ptr %68, ptr %13, align 8
  br label %69

69:                                               ; preds = %120, %43
  %70 = load ptr, ptr %13, align 8
  store ptr %70, ptr %7, align 8
  %71 = load ptr, ptr %7, align 8
  %72 = getelementptr inbounds %struct._zval_struct, ptr %71, i32 0, i32 1
  %73 = getelementptr inbounds %struct.anon.0, ptr %72, i32 0, i32 1
  %74 = load i8, ptr %73, align 1
  %75 = zext i8 %74 to i32
  %76 = icmp ne i32 %75, 0
  br i1 %76, label %77, label %120

77:                                               ; preds = %69
  %78 = load ptr, ptr %7, align 8
  %79 = load ptr, ptr %78, align 8
  store ptr %79, ptr %8, align 8
  %80 = load ptr, ptr %8, align 8
  store ptr %80, ptr %6, align 8
  %81 = load ptr, ptr %6, align 8
  %82 = load i32, ptr %81, align 4
  %83 = icmp ugt i32 %82, 0
  call void @llvm.assume(i1 %83)
  %84 = load ptr, ptr %6, align 8
  %85 = load i32, ptr %84, align 4
  %86 = add i32 %85, -1
  store i32 %86, ptr %84, align 4
  %87 = icmp ne i32 %86, 0
  br i1 %87, label %90, label %88

88:                                               ; preds = %77
  %89 = load ptr, ptr %8, align 8
  call void @rc_dtor_func(ptr noundef %89) #4
  br label %119

90:                                               ; preds = %77
  %91 = load ptr, ptr %8, align 8
  store ptr %91, ptr %3, align 8
  %92 = load ptr, ptr %3, align 8
  %93 = getelementptr inbounds %struct._zend_refcounted_h, ptr %92, i32 0, i32 1
  %94 = load i32, ptr %93, align 4
  %95 = icmp eq i32 %94, 26
  br i1 %95, label %96, label %110

96:                                               ; preds = %90
  %97 = load ptr, ptr %3, align 8
  %98 = getelementptr inbounds %struct._zend_reference, ptr %97, i32 0, i32 1
  store ptr %98, ptr %4, align 8
  %99 = load ptr, ptr %4, align 8
  %100 = getelementptr inbounds %struct._zval_struct, ptr %99, i32 0, i32 1
  %101 = getelementptr inbounds %struct.anon.0, ptr %100, i32 0, i32 1
  %102 = load i8, ptr %101, align 1
  %103 = zext i8 %102 to i32
  %104 = and i32 %103, 2
  %105 = icmp ne i32 %104, 0
  br i1 %105, label %107, label %106

106:                                              ; preds = %96
  br label %118

107:                                              ; preds = %96
  %108 = load ptr, ptr %4, align 8
  %109 = load ptr, ptr %108, align 8
  store ptr %109, ptr %3, align 8
  br label %110

110:                                              ; preds = %107, %90
  %111 = load ptr, ptr %3, align 8
  %112 = getelementptr inbounds %struct._zend_refcounted_h, ptr %111, i32 0, i32 1
  %113 = load i32, ptr %112, align 4
  %114 = and i32 %113, -1008
  %115 = icmp eq i32 %114, 0
  br i1 %115, label %116, label %118

116:                                              ; preds = %110
  %117 = load ptr, ptr %3, align 8
  call void @gc_possible_root(ptr noundef %117) #4
  br label %118

118:                                              ; preds = %116, %110, %106
  br label %119

119:                                              ; preds = %118, %88
  br label %120

120:                                              ; preds = %119, %69
  %121 = load ptr, ptr %13, align 8
  %122 = getelementptr inbounds %struct._zval_struct, ptr %121, i32 1
  store ptr %122, ptr %13, align 8
  %123 = load i32, ptr %12, align 4
  %124 = add i32 %123, -1
  store i32 %124, ptr %12, align 4
  %125 = icmp ne i32 %124, 0
  br i1 %125, label %69, label %126

126:                                              ; preds = %120
  br label %127

127:                                              ; preds = %126, %37
  br label %128

128:                                              ; preds = %127, %2
  %129 = load i32, ptr %14, align 4
  %130 = and i32 %129, 134217728
  %131 = icmp ne i32 %130, 0
  %132 = xor i1 %131, true
  %133 = xor i1 %132, true
  %134 = zext i1 %133 to i32
  %135 = sext i32 %134 to i64
  %136 = icmp ne i64 %135, 0
  br i1 %136, label %137, label %141

137:                                              ; preds = %128
  %138 = load ptr, ptr %15, align 8
  %139 = getelementptr inbounds %struct._zend_execute_data, ptr %138, i32 0, i32 8
  %140 = load ptr, ptr %139, align 8
  call void @zend_free_extra_named_params(ptr noundef %140)
  br label %141

141:                                              ; preds = %137, %128
  %142 = load i32, ptr %14, align 4
  %143 = and i32 %142, 4194304
  %144 = icmp ne i32 %143, 0
  %145 = xor i1 %144, true
  %146 = xor i1 %145, true
  %147 = zext i1 %146 to i32
  %148 = sext i32 %147 to i64
  %149 = icmp ne i64 %148, 0
  br i1 %149, label %150, label %175

150:                                              ; preds = %141
  %151 = load ptr, ptr %15, align 8
  %152 = getelementptr inbounds %struct._zend_execute_data, ptr %151, i32 0, i32 3
  %153 = load ptr, ptr %152, align 8
  %154 = getelementptr inbounds i8, ptr %153, i64 -56
  store ptr %154, ptr %9, align 8
  %155 = load ptr, ptr %9, align 8
  store ptr %155, ptr %5, align 8
  %156 = load ptr, ptr %5, align 8
  %157 = load i32, ptr %156, align 4
  %158 = icmp ugt i32 %157, 0
  call void @llvm.assume(i1 %158)
  %159 = load ptr, ptr %5, align 8
  %160 = load i32, ptr %159, align 4
  %161 = add i32 %160, -1
  store i32 %161, ptr %159, align 4
  %162 = icmp eq i32 %161, 0
  br i1 %162, label %163, label %165

163:                                              ; preds = %150
  %164 = load ptr, ptr %9, align 8
  call void @zend_objects_store_del(ptr noundef %164) #4
  br label %174

165:                                              ; preds = %150
  %166 = load ptr, ptr %9, align 8
  %167 = getelementptr inbounds %struct._zend_refcounted_h, ptr %166, i32 0, i32 1
  %168 = load i32, ptr %167, align 4
  %169 = and i32 %168, -1008
  %170 = icmp eq i32 %169, 0
  br i1 %170, label %171, label %173

171:                                              ; preds = %165
  %172 = load ptr, ptr %9, align 8
  call void @gc_possible_root(ptr noundef %172) #4
  br label %173

173:                                              ; preds = %171, %165
  br label %174

174:                                              ; preds = %173, %163
  br label %175

175:                                              ; preds = %174, %141
  %176 = load ptr, ptr getelementptr inbounds (%struct._zend_executor_globals, ptr @executor_globals, i32 0, i32 17), align 8
  store ptr %176, ptr %15, align 8
  ret i32 -1
}