; Function Attrs: nounwind uwtable
define hidden noundef i32 @zend_jit_leave_top_func_helper(i32 noundef %0, ptr nocapture noundef readonly %1) local_unnamed_addr #0 {
  %3 = and i32 %0, 1572864
  %.not = icmp eq i32 %3, 0
  br i1 %.not, label %.loopexit, label %4

4:                                                ; preds = %2
  %5 = and i32 %0, 1048576
  %.not39 = icmp eq i32 %5, 0
  br i1 %.not39, label %9, label %6

6:                                                ; preds = %4
  %7 = getelementptr inbounds i8, ptr %1, i64 56
  %8 = load ptr, ptr %7, align 8
  tail call void @zend_clean_and_cache_symbol_table(ptr noundef %8) #6
  br label %9

9:                                                ; preds = %6, %4
  %10 = and i32 %0, 524288
  %.not40 = icmp eq i32 %10, 0
  br i1 %.not40, label %.loopexit, label %11

11:                                               ; preds = %9
  %12 = getelementptr inbounds i8, ptr %1, i64 44
  %13 = load i32, ptr %12, align 4
  %14 = getelementptr inbounds i8, ptr %1, i64 24
  %15 = load ptr, ptr %14, align 8
  %16 = getelementptr inbounds i8, ptr %15, i64 32
  %17 = load i32, ptr %16, align 8
  %18 = sub i32 %13, %17
  %19 = getelementptr inbounds i8, ptr %15, i64 80
  %20 = load i32, ptr %19, align 8
  %21 = getelementptr inbounds i8, ptr %15, i64 72
  %22 = load i32, ptr %21, align 8
  %23 = add i32 %22, %20
  %24 = sext i32 %23 to i64
  %25 = getelementptr %struct._zval_struct, ptr %1, i64 %24
  %26 = getelementptr i8, ptr %25, i64 80
  br label %27

27:                                               ; preds = %52, %11
  %.037 = phi i32 [ %18, %11 ], [ %54, %52 ]
  %.036 = phi ptr [ %26, %11 ], [ %53, %52 ]
  %28 = getelementptr inbounds i8, ptr %.036, i64 9
  %29 = load i8, ptr %28, align 1
  %.not41 = icmp eq i8 %29, 0
  br i1 %.not41, label %52, label %30

30:                                               ; preds = %27
  %31 = load ptr, ptr %.036, align 8
  %32 = load i32, ptr %31, align 4
  %33 = icmp ne i32 %32, 0
  tail call void @llvm.assume(i1 %33)
  %34 = add i32 %32, -1
  store i32 %34, ptr %31, align 4
  %.not42 = icmp eq i32 %34, 0
  br i1 %.not42, label %35, label %36

35:                                               ; preds = %30
  tail call void @rc_dtor_func(ptr noundef nonnull %31) #6
  br label %52

36:                                               ; preds = %30
  %37 = getelementptr inbounds i8, ptr %31, i64 4
  %38 = load i32, ptr %37, align 4
  %39 = icmp eq i32 %38, 26
  br i1 %39, label %40, label %47

40:                                               ; preds = %36
  %41 = getelementptr inbounds i8, ptr %31, i64 17
  %42 = load i8, ptr %41, align 1
  %43 = and i8 %42, 2
  %.not43 = icmp eq i8 %43, 0
  br i1 %.not43, label %52, label %44

44:                                               ; preds = %40
  %45 = getelementptr inbounds i8, ptr %31, i64 8
  %46 = load ptr, ptr %45, align 8
  %.phi.trans.insert = getelementptr inbounds i8, ptr %46, i64 4
  %.pre = load i32, ptr %.phi.trans.insert, align 4
  br label %47

47:                                               ; preds = %44, %36
  %48 = phi i32 [ %.pre, %44 ], [ %38, %36 ]
  %.0 = phi ptr [ %46, %44 ], [ %31, %36 ]
  %49 = and i32 %48, -1008
  %50 = icmp eq i32 %49, 0
  br i1 %50, label %51, label %52

51:                                               ; preds = %47
  tail call void @gc_possible_root(ptr noundef nonnull %.0) #6
  br label %52

52:                                               ; preds = %35, %40, %51, %47, %27
  %53 = getelementptr inbounds i8, ptr %.036, i64 16
  %54 = add i32 %.037, -1
  %.not44 = icmp eq i32 %54, 0
  br i1 %.not44, label %.loopexit, label %27

.loopexit:                                        ; preds = %52, %9, %2
  %55 = and i32 %0, 134217728
  %.not45 = icmp eq i32 %55, 0
  br i1 %.not45, label %59, label %56

56:                                               ; preds = %.loopexit
  %57 = getelementptr inbounds i8, ptr %1, i64 72
  %58 = load ptr, ptr %57, align 8
  tail call void @zend_free_extra_named_params(ptr noundef %58) #6
  br label %59

59:                                               ; preds = %56, %.loopexit
  %60 = and i32 %0, 4194304
  %.not46 = icmp eq i32 %60, 0
  br i1 %.not46, label %76, label %61

61:                                               ; preds = %59
  %62 = getelementptr inbounds i8, ptr %1, i64 24
  %63 = load ptr, ptr %62, align 8
  %64 = getelementptr inbounds i8, ptr %63, i64 -56
  %65 = load i32, ptr %64, align 4
  %66 = icmp ne i32 %65, 0
  tail call void @llvm.assume(i1 %66)
  %67 = add i32 %65, -1
  store i32 %67, ptr %64, align 4
  %68 = icmp eq i32 %67, 0
  br i1 %68, label %69, label %70

69:                                               ; preds = %61
  tail call void @zend_objects_store_del(ptr noundef nonnull %64) #6
  br label %76

70:                                               ; preds = %61
  %71 = getelementptr inbounds i8, ptr %63, i64 -52
  %72 = load i32, ptr %71, align 4
  %73 = and i32 %72, -1008
  %74 = icmp eq i32 %73, 0
  br i1 %74, label %75, label %76

75:                                               ; preds = %70
  tail call void @gc_possible_root(ptr noundef nonnull %64) #6
  br label %76

76:                                               ; preds = %69, %75, %70, %59
  ret i32 -1
}